; Function Attrs: mustprogress uwtable
define void @_ZN6duckdb12TaskExecutorC2ERNS_13TaskSchedulerE(ptr noundef nonnull align 8 dereferenceable(96) initializes((0, 72)) %0, ptr noundef nonnull align 8 dereferenceable(124) %1) unnamed_addr #0 align 2 personality ptr @__gxx_personality_v0 {
  store ptr %1, ptr %0, align 8, !tbaa !1130
  %3 = getelementptr inbounds nuw i8, ptr %0, i64 8
  tail call void @llvm.memset.p0.i64(ptr noundef nonnull align 8 dereferenceable(64) %3, i8 0, i64 64, i1 false)
  %4 = getelementptr inbounds nuw i8, ptr %0, i64 72
  invoke void @_ZN6duckdb13TaskScheduler14CreateProducerEv(ptr dead_on_unwind nonnull writable sret(%"class.duckdb::unique_ptr.53") align 8 %4, ptr noundef nonnull align 8 dereferenceable(124) %1)
          to label %5 unwind label %7

5:                                                ; preds = %2
  %6 = getelementptr inbounds nuw i8, ptr %0, i64 80
  tail call void @llvm.memset.p0.i64(ptr noundef nonnull align 8 dereferenceable(16) %6, i8 0, i64 16, i1 false)
  ret void

7:                                                ; preds = %2
  %8 = landingpad { ptr, i32 }
          cleanup
  tail call void @_ZN6duckdb16TaskErrorManagerD2Ev(ptr noundef nonnull align 8 dereferenceable(64) %3) #35
  resume { ptr, i32 } %8
}